target datalayout = "e-m:e-p270:32:32-p271:32:32-p272:64:64-i64:64-i128:128-f80:128-n8:16:32:64-S128"
target triple = "x86_64-pc-linux-gnu"

%struct.nghttp2_stream = type { %struct.nghttp2_pq_entry, %struct.nghttp2_pq, i64, i64, i64, i64, i64, i64, ptr, ptr, ptr, ptr, ptr, ptr, ptr, ptr, i64, i32, i32, i32, i32, i32, i32, i32, i32, i32, i32, i16, i32, i8, i8, i8, i8, i8, i8 }
%struct.nghttp2_pq_entry = type { i64 }
%struct.nghttp2_pq = type { ptr, ptr, i64, i64, ptr }
%struct.nghttp2_frame_hd = type { i64, i32, i8, i8, i8 }

; Function Attrs: nounwind uwtable
define internal i32 @check_path(ptr noundef %0) #0 {
  %2 = alloca ptr, align 8
  store ptr %0, ptr %2, align 8, !tbaa !9
  %3 = load ptr, ptr %2, align 8, !tbaa !9
  %4 = getelementptr inbounds nuw %struct.nghttp2_stream, ptr %3, i32 0, i32 28
  %5 = load i32, ptr %4, align 4, !tbaa !26
  %6 = and i32 %5, 8192
  %7 = icmp eq i32 %6, 0
  br i1 %7, label %30, label %8

8:                                                ; preds = %1
  %9 = load ptr, ptr %2, align 8, !tbaa !9
  %10 = getelementptr inbounds nuw %struct.nghttp2_stream, ptr %9, i32 0, i32 28
  %11 = load i32, ptr %10, align 4, !tbaa !26
  %12 = and i32 %11, 2048
  %13 = icmp ne i32 %12, 0
  br i1 %13, label %28, label %14

14:                                               ; preds = %8
  %15 = load ptr, ptr %2, align 8, !tbaa !9
  %16 = getelementptr inbounds nuw %struct.nghttp2_stream, ptr %15, i32 0, i32 28
  %17 = load i32, ptr %16, align 4, !tbaa !26
  %18 = and i32 %17, 512
  %19 = icmp ne i32 %18, 0
  br i1 %19, label %20, label %26

20:                                               ; preds = %14
  %21 = load ptr, ptr %2, align 8, !tbaa !9
  %22 = getelementptr inbounds nuw %struct.nghttp2_stream, ptr %21, i32 0, i32 28
  %23 = load i32, ptr %22, align 4, !tbaa !26
  %24 = and i32 %23, 4096
  %25 = icmp ne i32 %24, 0
  br label %26

26:                                               ; preds = %20, %14
  %27 = phi i1 [ false, %14 ], [ %25, %20 ]
  br label %28

28:                                               ; preds = %26, %8
  %29 = phi i1 [ true, %8 ], [ %27, %26 ]
  br label %30

30:                                               ; preds = %28, %1
  %31 = phi i1 [ true, %1 ], [ %29, %28 ]
  %32 = zext i1 %31 to i32
  ret i32 %32
}

; Function Attrs: nounwind uwtable
define dso_local i32 @nghttp2_http_on_request_headers(ptr noundef %0, ptr noundef %1) #0 {
  %3 = alloca i32, align 4
  %4 = alloca ptr, align 8
  %5 = alloca ptr, align 8
  store ptr %0, ptr %4, align 8, !tbaa !9
  store ptr %1, ptr %5, align 8, !tbaa !11
  %6 = load ptr, ptr %4, align 8, !tbaa !9
  %7 = getelementptr inbounds nuw %struct.nghttp2_stream, ptr %6, i32 0, i32 28
  %8 = load i32, ptr %7, align 4, !tbaa !26
  %9 = and i32 %8, 32768
  %10 = icmp ne i32 %9, 0
  br i1 %10, label %33, label %11

11:                                               ; preds = %2
  %12 = load ptr, ptr %4, align 8, !tbaa !9
  %13 = getelementptr inbounds nuw %struct.nghttp2_stream, ptr %12, i32 0, i32 28
  %14 = load i32, ptr %13, align 4, !tbaa !26
  %15 = and i32 %14, 128
  %16 = icmp ne i32 %15, 0
  br i1 %16, label %17, label %33

17:                                               ; preds = %11
  %18 = load ptr, ptr %4, align 8, !tbaa !9
  %19 = getelementptr inbounds nuw %struct.nghttp2_stream, ptr %18, i32 0, i32 28
  %20 = load i32, ptr %19, align 4, !tbaa !26
  %21 = and i32 %20, 10
  %22 = icmp ne i32 %21, 0
  br i1 %22, label %29, label %23

23:                                               ; preds = %17
  %24 = load ptr, ptr %4, align 8, !tbaa !9
  %25 = getelementptr inbounds nuw %struct.nghttp2_stream, ptr %24, i32 0, i32 28
  %26 = load i32, ptr %25, align 4, !tbaa !26
  %27 = and i32 %26, 1
  %28 = icmp eq i32 %27, 0
  br i1 %28, label %29, label %30

29:                                               ; preds = %23, %17
  store i32 -1, ptr %3, align 4
  br label %85

30:                                               ; preds = %23
  %31 = load ptr, ptr %4, align 8, !tbaa !9
  %32 = getelementptr inbounds nuw %struct.nghttp2_stream, ptr %31, i32 0, i32 2
  store i64 -1, ptr %32, align 8, !tbaa !61
  br label %71

33:                                               ; preds = %11, %2
  %34 = load ptr, ptr %4, align 8, !tbaa !9
  %35 = getelementptr inbounds nuw %struct.nghttp2_stream, ptr %34, i32 0, i32 28
  %36 = load i32, ptr %35, align 4, !tbaa !26
  %37 = and i32 %36, 14
  %38 = icmp ne i32 %37, 14
  br i1 %38, label %45, label %39

39:                                               ; preds = %33
  %40 = load ptr, ptr %4, align 8, !tbaa !9
  %41 = getelementptr inbounds nuw %struct.nghttp2_stream, ptr %40, i32 0, i32 28
  %42 = load i32, ptr %41, align 4, !tbaa !26
  %43 = and i32 %42, 17
  %44 = icmp eq i32 %43, 0
  br i1 %44, label %45, label %46

45:                                               ; preds = %39, %33
  store i32 -1, ptr %3, align 4
  br label %85

46:                                               ; preds = %39
  %47 = load ptr, ptr %4, align 8, !tbaa !9
  %48 = getelementptr inbounds nuw %struct.nghttp2_stream, ptr %47, i32 0, i32 28
  %49 = load i32, ptr %48, align 4, !tbaa !26
  %50 = and i32 %49, 32768
  %51 = icmp ne i32 %50, 0
  br i1 %51, label %52, label %65

52:                                               ; preds = %46
  %53 = load ptr, ptr %4, align 8, !tbaa !9
  %54 = getelementptr inbounds nuw %struct.nghttp2_stream, ptr %53, i32 0, i32 28
  %55 = load i32, ptr %54, align 4, !tbaa !26
  %56 = and i32 %55, 128
  %57 = icmp eq i32 %56, 0
  br i1 %57, label %64, label %58

58:                                               ; preds = %52
  %59 = load ptr, ptr %4, align 8, !tbaa !9
  %60 = getelementptr inbounds nuw %struct.nghttp2_stream, ptr %59, i32 0, i32 28
  %61 = load i32, ptr %60, align 4, !tbaa !26
  %62 = and i32 %61, 1
  %63 = icmp eq i32 %62, 0
  br i1 %63, label %64, label %65

64:                                               ; preds = %58, %52
  store i32 -1, ptr %3, align 4
  br label %85

65:                                               ; preds = %58, %46
  %66 = load ptr, ptr %4, align 8, !tbaa !9
  %67 = call i32 @check_path(ptr noundef %66)
  %68 = icmp ne i32 %67, 0
  br i1 %68, label %70, label %69

69:                                               ; preds = %65
  store i32 -1, ptr %3, align 4
  br label %85

70:                                               ; preds = %65
  br label %71

71:                                               ; preds = %70, %30
  %72 = load ptr, ptr %5, align 8, !tbaa !11
  %73 = getelementptr inbounds nuw %struct.nghttp2_frame_hd, ptr %72, i32 0, i32 2
  %74 = load i8, ptr %73, align 4, !tbaa !22
  %75 = zext i8 %74 to i32
  %76 = icmp eq i32 %75, 5
  br i1 %76, label %77, label %84

77:                                               ; preds = %71
  %78 = load ptr, ptr %4, align 8, !tbaa !9
  %79 = getelementptr inbounds nuw %struct.nghttp2_stream, ptr %78, i32 0, i32 28
  %80 = load i32, ptr %79, align 4, !tbaa !26
  %81 = and i32 %80, 1920
  store i32 %81, ptr %79, align 4, !tbaa !26
  %82 = load ptr, ptr %4, align 8, !tbaa !9
  %83 = getelementptr inbounds nuw %struct.nghttp2_stream, ptr %82, i32 0, i32 2
  store i64 -1, ptr %83, align 8, !tbaa !61
  br label %84

84:                                               ; preds = %77, %71
  store i32 0, ptr %3, align 4
  br label %85

85:                                               ; preds = %84, %69, %64, %45, %29
  %86 = load i32, ptr %3, align 4
  ret i32 %86
}